target datalayout = "e-m:e-p270:32:32-p271:32:32-p272:64:64-i64:64-i128:128-f80:128-n8:16:32:64-S128"
target triple = "x86_64-pc-linux-gnu"

@max_locks_per_xact = dso_local global i32 0, align 4
@MaxBackends = external global i32, align 4
@max_prepared_xacts = external global i32, align 4

; Function Attrs: nounwind uwtable
define dso_local i64 @LockManagerShmemSize() #0 {
  %1 = alloca i64, align 8
  %2 = alloca i64, align 8
  call void @llvm.lifetime.start.p0(i64 8, ptr %1) #9
  store i64 0, ptr %1, align 8
  call void @llvm.lifetime.start.p0(i64 8, ptr %2) #9
  %3 = load i32, ptr @max_locks_per_xact, align 4
  %4 = sext i32 %3 to i64
  %5 = load i32, ptr @MaxBackends, align 4
  %6 = sext i32 %5 to i64
  %7 = load i32, ptr @max_prepared_xacts, align 4
  %8 = sext i32 %7 to i64
  %9 = call i64 @add_size(i64 noundef %6, i64 noundef %8)
  %10 = call i64 @mul_size(i64 noundef %4, i64 noundef %9)
  store i64 %10, ptr %2, align 8
  %11 = load i64, ptr %1, align 8
  %12 = load i64, ptr %2, align 8
  %13 = call i64 @hash_estimate_size(i64 noundef %12, i64 noundef 152)
  %14 = call i64 @add_size(i64 noundef %11, i64 noundef %13)
  store i64 %14, ptr %1, align 8
  %15 = load i64, ptr %2, align 8
  %16 = mul i64 %15, 2
  store i64 %16, ptr %2, align 8
  %17 = load i64, ptr %1, align 8
  %18 = load i64, ptr %2, align 8
  %19 = call i64 @hash_estimate_size(i64 noundef %18, i64 noundef 64)
  %20 = call i64 @add_size(i64 noundef %17, i64 noundef %19)
  store i64 %20, ptr %1, align 8
  %21 = load i64, ptr %1, align 8
  %22 = load i64, ptr %1, align 8
  %23 = udiv i64 %22, 10
  %24 = call i64 @add_size(i64 noundef %21, i64 noundef %23)
  store i64 %24, ptr %1, align 8
  %25 = load i64, ptr %1, align 8
  call void @llvm.lifetime.end.p0(i64 8, ptr %2) #9
  call void @llvm.lifetime.end.p0(i64 8, ptr %1) #9
  ret i64 %25
}