; Function Attrs: nounwind uwtable
define dso_local i64 @LockManagerShmemSize() local_unnamed_addr #0 {
  %1 = load i32, ptr @max_locks_per_xact, align 4
  %2 = sext i32 %1 to i64
  %3 = load i32, ptr @MaxBackends, align 4
  %4 = sext i32 %3 to i64
  %5 = load i32, ptr @max_prepared_xacts, align 4
  %6 = sext i32 %5 to i64
  %7 = tail call i64 @add_size(i64 noundef %4, i64 noundef %6) #17
  %8 = tail call i64 @mul_size(i64 noundef %2, i64 noundef %7) #17
  %9 = tail call i64 @hash_estimate_size(i64 noundef %8, i64 noundef 152) #17
  %10 = tail call i64 @add_size(i64 noundef 0, i64 noundef %9) #17
  %11 = shl i64 %8, 1
  %12 = tail call i64 @hash_estimate_size(i64 noundef %11, i64 noundef 64) #17
  %13 = tail call i64 @add_size(i64 noundef %10, i64 noundef %12) #17
  %14 = udiv i64 %13, 10
  %15 = tail call i64 @add_size(i64 noundef %13, i64 noundef %14) #17
  ret i64 %15
}